; Function Attrs: mustprogress uwtable
define hidden noundef range(i32 -1, 1) i32 @_ZN4ncnn3Net10load_paramEP8_IO_FILE(ptr noundef nonnull align 8 dereferenceable(80) %0, ptr noundef %1) local_unnamed_addr #2 align 2 personality ptr @__gxx_personality_v0 {
  %3 = alloca %"class.ncnn::DataReaderFromStdio", align 8
  call void @llvm.lifetime.start.p0(i64 16, ptr nonnull %3) #26
  call void @_ZN4ncnn19DataReaderFromStdioC1EP8_IO_FILE(ptr noundef nonnull align 8 dereferenceable(16) %3, ptr noundef %1)
  %4 = invoke noundef i32 @_ZN4ncnn3Net10load_paramERKNS_10DataReaderE(ptr noundef nonnull align 8 dereferenceable(80) %0, ptr noundef nonnull align 8 dereferenceable(8) %3)
          to label %5 unwind label %6

5:                                                ; preds = %2
  call void @_ZN4ncnn19DataReaderFromStdioD1Ev(ptr noundef nonnull align 8 dereferenceable(16) %3) #26
  call void @llvm.lifetime.end.p0(i64 16, ptr nonnull %3) #26
  ret i32 %4

6:                                                ; preds = %2
  %7 = landingpad { ptr, i32 }
          cleanup
  call void @_ZN4ncnn19DataReaderFromStdioD1Ev(ptr noundef nonnull align 8 dereferenceable(16) %3) #26
  call void @llvm.lifetime.end.p0(i64 16, ptr nonnull %3) #26
  resume { ptr, i32 } %7
}